target datalayout = "e-m:e-p270:32:32-p271:32:32-p272:64:64-i64:64-i128:128-f80:128-n8:16:32:64-S128"
target triple = "x86_64-pc-linux-gnu"

%union.anon = type { ptr }
%struct.AVBPrint = type { ptr, i32, i32, i32, [1 x i8], [1000 x i8] }
%struct.AVPacket = type { ptr, i64, i64, ptr, i32, i32, i32, ptr, i32, i64, i64, ptr, ptr, %struct.AVRational }
%struct.AVRational = type { i32, i32 }
%struct.AVCodecContext = type { ptr, i32, i32, ptr, i32, i32, ptr, ptr, ptr, i64, i32, i32, ptr, i32, %struct.AVRational, %struct.AVRational, %struct.AVRational, i32, i32, i32, i32, i32, %struct.AVRational, i32, i32, i32, i32, i32, i32, i32, i32, i32, i32, i32, ptr, ptr, i32, float, float, float, float, float, float, float, float, float, i32, i32, i32, i32, i32, i32, i32, i32, i32, i32, i32, i32, ptr, ptr, ptr, i32, i32, i32, i32, i32, i32, i32, i32, i32, i32, %struct.AVChannelLayout, i32, i32, i32, i32, i32, i32, i32, i32, ptr, i32, i32, i32, float, float, i32, i32, i32, i32, i32, ptr, i64, i64, float, float, i32, i32, ptr, ptr, i32, i32, i32, i32, i32, ptr, ptr, ptr, ptr, i32, i32, [8 x i64], i32, i32, i32, i32, i32, i32, i32, ptr, ptr, i32, i32, i32, i32, i32, i32, i32, i32, i32, i32, ptr, ptr, i32, i32, ptr, ptr, ptr, ptr, i32, i32, i64, i32, i32, i64, ptr, i64, ptr, i32, ptr, i32 }
%struct.AVChannelLayout = type { i32, i32, %union.anon.0, ptr }
%union.anon.0 = type { i64 }
%struct.FFASSDecoderContext = type { i32 }
%struct.AVSubtitle = type { i16, i32, i32, i32, ptr, i64 }

@.str = private unnamed_addr constant [10 x i8] c"subviewer\00", align 1
@.str.1 = private unnamed_addr constant [19 x i8] c"SubViewer subtitle\00", align 1
@ff_subviewer_decoder = constant { { ptr, ptr, i32, i32, i32, i8, [3 x i8], ptr, ptr, ptr, ptr, ptr, ptr, ptr, ptr }, i8, i8, i8, i8, i32, ptr, ptr, ptr, ptr, %union.anon, ptr, ptr, ptr, ptr, ptr, ptr } { { ptr, ptr, i32, i32, i32, i8, [3 x i8], ptr, ptr, ptr, ptr, ptr, ptr, ptr, ptr } { ptr @.str, ptr @.str.1, i32 3, i32 94224, i32 0, i8 0, [3 x i8] zeroinitializer, ptr null, ptr null, ptr null, ptr null, ptr null, ptr null, ptr null, ptr null }, i8 0, i8 0, i8 0, i8 36, i32 4, ptr null, ptr null, ptr null, ptr @ff_ass_subtitle_header_default, %union.anon { ptr @subviewer_decode_frame }, ptr null, ptr @ff_ass_decoder_flush, ptr null, ptr null, ptr null, ptr null }, align 8
@.str.2 = private unnamed_addr constant [5 x i8] c"[br]\00", align 1
@.str.3 = private unnamed_addr constant [3 x i8] c"\\N\00", align 1

declare i32 @ff_ass_subtitle_header_default(ptr noundef) #0

; Function Attrs: nounwind uwtable
define internal i32 @subviewer_decode_frame(ptr noundef %0, ptr noundef %1, ptr noundef %2, ptr noundef %3) #1 {
  %5 = alloca i32, align 4
  %6 = alloca ptr, align 8
  %7 = alloca ptr, align 8
  %8 = alloca ptr, align 8
  %9 = alloca ptr, align 8
  %10 = alloca i32, align 4
  %11 = alloca ptr, align 8
  %12 = alloca ptr, align 8
  %13 = alloca %struct.AVBPrint, align 8
  %14 = alloca i32, align 4
  store ptr %0, ptr %6, align 8, !tbaa !4
  store ptr %1, ptr %7, align 8, !tbaa !9
  store ptr %2, ptr %8, align 8, !tbaa !11
  store ptr %3, ptr %9, align 8, !tbaa !13
  call void @llvm.lifetime.start.p0(i64 4, ptr %10) #4
  store i32 0, ptr %10, align 4, !tbaa !15
  call void @llvm.lifetime.start.p0(i64 8, ptr %11) #4
  %15 = load ptr, ptr %9, align 8, !tbaa !13
  %16 = getelementptr inbounds nuw %struct.AVPacket, ptr %15, i32 0, i32 3
  %17 = load ptr, ptr %16, align 8, !tbaa !17
  store ptr %17, ptr %11, align 8, !tbaa !24
  call void @llvm.lifetime.start.p0(i64 8, ptr %12) #4
  %18 = load ptr, ptr %6, align 8, !tbaa !4
  %19 = getelementptr inbounds nuw %struct.AVCodecContext, ptr %18, i32 0, i32 6
  %20 = load ptr, ptr %19, align 8, !tbaa !25
  store ptr %20, ptr %12, align 8, !tbaa !38
  call void @llvm.lifetime.start.p0(i64 1024, ptr %13) #4
  call void @av_bprint_init(ptr noundef %13, i32 noundef 0, i32 noundef -1)
  %21 = load ptr, ptr %11, align 8, !tbaa !24
  %22 = icmp ne ptr %21, null
  br i1 %22, label %23, label %41

23:                                               ; preds = %4
  %24 = load ptr, ptr %9, align 8, !tbaa !13
  %25 = getelementptr inbounds nuw %struct.AVPacket, ptr %24, i32 0, i32 4
  %26 = load i32, ptr %25, align 8, !tbaa !40
  %27 = icmp sgt i32 %26, 0
  br i1 %27, label %28, label %41

28:                                               ; preds = %23
  %29 = load ptr, ptr %11, align 8, !tbaa !24
  %30 = call i32 @subviewer_event_to_ass(ptr noundef %13, ptr noundef %29)
  %31 = icmp ne i32 %30, 0
  br i1 %31, label %41, label %32

32:                                               ; preds = %28
  %33 = load ptr, ptr %7, align 8, !tbaa !9
  %34 = getelementptr inbounds nuw %struct.AVBPrint, ptr %13, i32 0, i32 0
  %35 = load ptr, ptr %34, align 8, !tbaa !41
  %36 = load ptr, ptr %12, align 8, !tbaa !38
  %37 = getelementptr inbounds nuw %struct.FFASSDecoderContext, ptr %36, i32 0, i32 0
  %38 = load i32, ptr %37, align 4, !tbaa !43
  %39 = add nsw i32 %38, 1
  store i32 %39, ptr %37, align 4, !tbaa !43
  %40 = call i32 @ff_ass_add_rect(ptr noundef %33, ptr noundef %35, i32 noundef %38, i32 noundef 0, ptr noundef null, ptr noundef null)
  store i32 %40, ptr %10, align 4, !tbaa !15
  br label %41

41:                                               ; preds = %32, %28, %23, %4
  %42 = call i32 @av_bprint_finalize(ptr noundef %13, ptr noundef null)
  %43 = load i32, ptr %10, align 4, !tbaa !15
  %44 = icmp slt i32 %43, 0
  br i1 %44, label %45, label %47

45:                                               ; preds = %41
  %46 = load i32, ptr %10, align 4, !tbaa !15
  store i32 %46, ptr %5, align 4
  store i32 1, ptr %14, align 4
  br label %57

47:                                               ; preds = %41
  %48 = load ptr, ptr %7, align 8, !tbaa !9
  %49 = getelementptr inbounds nuw %struct.AVSubtitle, ptr %48, i32 0, i32 3
  %50 = load i32, ptr %49, align 4, !tbaa !45
  %51 = icmp ugt i32 %50, 0
  %52 = zext i1 %51 to i32
  %53 = load ptr, ptr %8, align 8, !tbaa !11
  store i32 %52, ptr %53, align 4, !tbaa !15
  %54 = load ptr, ptr %9, align 8, !tbaa !13
  %55 = getelementptr inbounds nuw %struct.AVPacket, ptr %54, i32 0, i32 4
  %56 = load i32, ptr %55, align 8, !tbaa !40
  store i32 %56, ptr %5, align 4
  store i32 1, ptr %14, align 4
  br label %57

57:                                               ; preds = %47, %45
  call void @llvm.lifetime.end.p0(i64 1024, ptr %13) #4
  call void @llvm.lifetime.end.p0(i64 8, ptr %12) #4
  call void @llvm.lifetime.end.p0(i64 8, ptr %11) #4
  call void @llvm.lifetime.end.p0(i64 4, ptr %10) #4
  %58 = load i32, ptr %5, align 4
  ret i32 %58
}

declare void @ff_ass_decoder_flush(ptr noundef) #0

; Function Attrs: nocallback nofree nosync nounwind willreturn memory(argmem: readwrite)
declare void @llvm.lifetime.start.p0(i64 immarg, ptr captures(none)) #2

declare void @av_bprint_init(ptr noundef, i32 noundef, i32 noundef) #0

; Function Attrs: nounwind uwtable
define internal i32 @subviewer_event_to_ass(ptr noundef %0, ptr noundef %1) #1 {
  %3 = alloca ptr, align 8
  %4 = alloca ptr, align 8
  store ptr %0, ptr %3, align 8, !tbaa !49
  store ptr %1, ptr %4, align 8, !tbaa !24
  br label %5

5:                                                ; preds = %49, %2
  %6 = load ptr, ptr %4, align 8, !tbaa !24
  %7 = load i8, ptr %6, align 1, !tbaa !51
  %8 = icmp ne i8 %7, 0
  br i1 %8, label %9, label %50

9:                                                ; preds = %5
  %10 = load ptr, ptr %4, align 8, !tbaa !24
  %11 = call i32 @strncmp(ptr noundef %10, ptr noundef @.str.2, i64 noundef 4) #5
  %12 = icmp ne i32 %11, 0
  br i1 %12, label %17, label %13

13:                                               ; preds = %9
  %14 = load ptr, ptr %3, align 8, !tbaa !49
  call void (ptr, ptr, ...) @av_bprintf(ptr noundef %14, ptr noundef @.str.3)
  %15 = load ptr, ptr %4, align 8, !tbaa !24
  %16 = getelementptr inbounds i8, ptr %15, i64 4
  store ptr %16, ptr %4, align 8, !tbaa !24
  br label %49

17:                                               ; preds = %9
  %18 = load ptr, ptr %4, align 8, !tbaa !24
  %19 = getelementptr inbounds i8, ptr %18, i64 0
  %20 = load i8, ptr %19, align 1, !tbaa !51
  %21 = sext i8 %20 to i32
  %22 = icmp eq i32 %21, 10
  br i1 %22, label %23, label %31

23:                                               ; preds = %17
  %24 = load ptr, ptr %4, align 8, !tbaa !24
  %25 = getelementptr inbounds i8, ptr %24, i64 1
  %26 = load i8, ptr %25, align 1, !tbaa !51
  %27 = sext i8 %26 to i32
  %28 = icmp ne i32 %27, 0
  br i1 %28, label %29, label %31

29:                                               ; preds = %23
  %30 = load ptr, ptr %3, align 8, !tbaa !49
  call void (ptr, ptr, ...) @av_bprintf(ptr noundef %30, ptr noundef @.str.3)
  br label %46

31:                                               ; preds = %23, %17
  %32 = load ptr, ptr %4, align 8, !tbaa !24
  %33 = load i8, ptr %32, align 1, !tbaa !51
  %34 = sext i8 %33 to i32
  %35 = icmp ne i32 %34, 10
  br i1 %35, label %36, label %45

36:                                               ; preds = %31
  %37 = load ptr, ptr %4, align 8, !tbaa !24
  %38 = load i8, ptr %37, align 1, !tbaa !51
  %39 = sext i8 %38 to i32
  %40 = icmp ne i32 %39, 13
  br i1 %40, label %41, label %45

41:                                               ; preds = %36
  %42 = load ptr, ptr %3, align 8, !tbaa !49
  %43 = load ptr, ptr %4, align 8, !tbaa !24
  %44 = load i8, ptr %43, align 1, !tbaa !51
  call void @av_bprint_chars(ptr noundef %42, i8 noundef signext %44, i32 noundef 1)
  br label %45

45:                                               ; preds = %41, %36, %31
  br label %46

46:                                               ; preds = %45, %29
  %47 = load ptr, ptr %4, align 8, !tbaa !24
  %48 = getelementptr inbounds nuw i8, ptr %47, i32 1
  store ptr %48, ptr %4, align 8, !tbaa !24
  br label %49

49:                                               ; preds = %46, %13
  br label %5, !llvm.loop !52

50:                                               ; preds = %5
  ret i32 0
}

declare i32 @ff_ass_add_rect(ptr noundef, ptr noundef, i32 noundef, i32 noundef, ptr noundef, ptr noundef) #0

declare i32 @av_bprint_finalize(ptr noundef, ptr noundef) #0

; Function Attrs: nocallback nofree nosync nounwind willreturn memory(argmem: readwrite)
declare void @llvm.lifetime.end.p0(i64 immarg, ptr captures(none)) #2

; Function Attrs: nounwind willreturn memory(read)
declare i32 @strncmp(ptr noundef, ptr noundef, i64 noundef) #3

declare void @av_bprintf(ptr noundef, ptr noundef, ...) #0

declare void @av_bprint_chars(ptr noundef, i8 noundef signext, i32 noundef) #0


!llvm.module.flags = !{!0, !1, !2, !3}

!0 = !{i32 1, !"wchar_size", i32 4}
!1 = !{i32 8, !"PIC Level", i32 2}
!2 = !{i32 7, !"uwtable", i32 2}
!3 = !{i32 1, !"override-stack-alignment", i32 16}
!4 = !{!5, !5, i64 0}
!5 = !{!"p1 _ZTS14AVCodecContext", !6, i64 0}
!6 = !{!"any pointer", !7, i64 0}
!7 = !{!"omnipotent char", !8, i64 0}
!8 = !{!"Simple C/C++ TBAA"}
!9 = !{!10, !10, i64 0}
!10 = !{!"p1 _ZTS10AVSubtitle", !6, i64 0}
!11 = !{!12, !12, i64 0}
!12 = !{!"p1 int", !6, i64 0}
!13 = !{!14, !14, i64 0}
!14 = !{!"p1 _ZTS8AVPacket", !6, i64 0}
!15 = !{!16, !16, i64 0}
!16 = !{!"int", !7, i64 0}
!17 = !{!18, !21, i64 24}
!18 = !{!"AVPacket", !19, i64 0, !20, i64 8, !20, i64 16, !21, i64 24, !16, i64 32, !16, i64 36, !16, i64 40, !22, i64 48, !16, i64 56, !20, i64 64, !20, i64 72, !6, i64 80, !19, i64 88, !23, i64 96}
!19 = !{!"p1 _ZTS11AVBufferRef", !6, i64 0}
!20 = !{!"long", !7, i64 0}
!21 = !{!"p1 omnipotent char", !6, i64 0}
!22 = !{!"p1 _ZTS16AVPacketSideData", !6, i64 0}
!23 = !{!"AVRational", !16, i64 0, !16, i64 4}
!24 = !{!21, !21, i64 0}
!25 = !{!26, !6, i64 32}
!26 = !{!"AVCodecContext", !27, i64 0, !16, i64 8, !16, i64 12, !28, i64 16, !16, i64 24, !16, i64 28, !6, i64 32, !29, i64 40, !6, i64 48, !20, i64 56, !16, i64 64, !16, i64 68, !21, i64 72, !16, i64 80, !23, i64 84, !23, i64 92, !23, i64 100, !16, i64 108, !16, i64 112, !16, i64 116, !16, i64 120, !16, i64 124, !23, i64 128, !16, i64 136, !16, i64 140, !16, i64 144, !16, i64 148, !16, i64 152, !16, i64 156, !16, i64 160, !16, i64 164, !16, i64 168, !16, i64 172, !16, i64 176, !6, i64 184, !6, i64 192, !16, i64 200, !30, i64 204, !30, i64 208, !30, i64 212, !30, i64 216, !30, i64 220, !30, i64 224, !30, i64 228, !30, i64 232, !30, i64 236, !16, i64 240, !16, i64 244, !16, i64 248, !16, i64 252, !16, i64 256, !16, i64 260, !16, i64 264, !16, i64 268, !16, i64 272, !16, i64 276, !16, i64 280, !16, i64 284, !31, i64 288, !31, i64 296, !31, i64 304, !16, i64 312, !16, i64 316, !16, i64 320, !16, i64 324, !16, i64 328, !16, i64 332, !16, i64 336, !16, i64 340, !16, i64 344, !16, i64 348, !32, i64 352, !16, i64 376, !16, i64 380, !16, i64 384, !16, i64 388, !16, i64 392, !16, i64 396, !16, i64 400, !16, i64 404, !6, i64 408, !16, i64 416, !16, i64 420, !16, i64 424, !30, i64 428, !30, i64 432, !16, i64 436, !16, i64 440, !16, i64 444, !16, i64 448, !16, i64 452, !33, i64 456, !20, i64 464, !20, i64 472, !30, i64 480, !30, i64 484, !16, i64 488, !16, i64 492, !21, i64 496, !21, i64 504, !16, i64 512, !16, i64 516, !16, i64 520, !16, i64 524, !16, i64 528, !34, i64 536, !6, i64 544, !19, i64 552, !19, i64 560, !16, i64 568, !16, i64 572, !7, i64 576, !16, i64 640, !16, i64 644, !16, i64 648, !16, i64 652, !16, i64 656, !16, i64 660, !16, i64 664, !6, i64 672, !6, i64 680, !16, i64 688, !16, i64 692, !16, i64 696, !16, i64 700, !16, i64 704, !16, i64 708, !16, i64 712, !16, i64 716, !16, i64 720, !16, i64 724, !35, i64 728, !21, i64 736, !16, i64 744, !16, i64 748, !21, i64 752, !21, i64 760, !21, i64 768, !22, i64 776, !16, i64 784, !16, i64 788, !20, i64 792, !16, i64 800, !16, i64 804, !20, i64 808, !6, i64 816, !20, i64 824, !12, i64 832, !16, i64 840, !36, i64 848, !16, i64 856}
!27 = !{!"p1 _ZTS7AVClass", !6, i64 0}
!28 = !{!"p1 _ZTS7AVCodec", !6, i64 0}
!29 = !{!"p1 _ZTS15AVCodecInternal", !6, i64 0}
!30 = !{!"float", !7, i64 0}
!31 = !{!"p1 short", !6, i64 0}
!32 = !{!"AVChannelLayout", !16, i64 0, !16, i64 4, !7, i64 8, !6, i64 16}
!33 = !{!"p1 _ZTS10RcOverride", !6, i64 0}
!34 = !{!"p1 _ZTS9AVHWAccel", !6, i64 0}
!35 = !{!"p1 _ZTS17AVCodecDescriptor", !6, i64 0}
!36 = !{!"p2 _ZTS15AVFrameSideData", !37, i64 0}
!37 = !{!"any p2 pointer", !6, i64 0}
!38 = !{!39, !39, i64 0}
!39 = !{!"p1 _ZTS19FFASSDecoderContext", !6, i64 0}
!40 = !{!18, !16, i64 32}
!41 = !{!42, !21, i64 0}
!42 = !{!"AVBPrint", !21, i64 0, !16, i64 8, !16, i64 12, !16, i64 16, !7, i64 20, !7, i64 21}
!43 = !{!44, !16, i64 0}
!44 = !{!"FFASSDecoderContext", !16, i64 0}
!45 = !{!46, !16, i64 12}
!46 = !{!"AVSubtitle", !47, i64 0, !16, i64 4, !16, i64 8, !16, i64 12, !48, i64 16, !20, i64 24}
!47 = !{!"short", !7, i64 0}
!48 = !{!"p2 _ZTS14AVSubtitleRect", !37, i64 0}
!49 = !{!50, !50, i64 0}
!50 = !{!"p1 _ZTS8AVBPrint", !6, i64 0}
!51 = !{!7, !7, i64 0}
!52 = distinct !{!52, !53}
!53 = !{!"llvm.loop.mustprogress"}
